target datalayout = "e-m:e-p270:32:32-p271:32:32-p272:64:64-i64:64-i128:128-f80:128-n8:16:32:64-S128"
target triple = "x86_64-pc-linux-gnu"

%class.stack = type { ptr, ptr, ptr, ptr }

; Function Attrs: inlinehint mustprogress nounwind uwtable
define linkonce_odr hidden void @_ZN5stack10store_markEm(ptr noundef nonnull align 8 dereferenceable(32) %0, i64 noundef %1) #9 comdat align 2 {
  %3 = alloca ptr, align 8
  %4 = alloca i64, align 8
  store ptr %0, ptr %3, align 8, !tbaa !3
  store i64 %1, ptr %4, align 8, !tbaa !14
  %5 = load ptr, ptr %3, align 8
  %6 = load i64, ptr %4, align 8, !tbaa !14
  %7 = getelementptr inbounds nuw %class.stack, ptr %5, i32 0, i32 1
  %8 = load ptr, ptr %7, align 8, !tbaa !11
  %9 = getelementptr inbounds i64, ptr %8, i64 0
  store i64 %6, ptr %9, align 8, !tbaa !14
  %10 = getelementptr inbounds nuw %class.stack, ptr %5, i32 0, i32 1
  %11 = load ptr, ptr %10, align 8, !tbaa !11
  %12 = getelementptr inbounds nuw i8, ptr %11, i64 8
  store ptr %12, ptr %10, align 8, !tbaa !11
  ret void
}

; Function Attrs: inlinehint mustprogress nounwind uwtable
define linkonce_odr hidden noundef ptr @_Z19end_of_default_pagePc(ptr noundef %0) #9 comdat {
  %2 = alloca ptr, align 8
  store ptr %0, ptr %2, align 8, !tbaa !18
  %3 = load ptr, ptr %2, align 8, !tbaa !18
  %4 = getelementptr inbounds nuw i8, ptr %3, i64 8184
  ret ptr %4
}

; Function Attrs: inlinehint mustprogress uwtable
define linkonce_odr hidden void @_ZN5stack13allocate_pageEm(ptr noundef nonnull align 8 dereferenceable(32) %0, i64 noundef %1) #5 comdat align 2 {
  %3 = alloca ptr, align 8
  %4 = alloca i64, align 8
  store ptr %0, ptr %3, align 8, !tbaa !3
  store i64 %1, ptr %4, align 8, !tbaa !14
  %5 = load ptr, ptr %3, align 8
  %6 = getelementptr inbounds nuw %class.stack, ptr %5, i32 0, i32 0
  %7 = load ptr, ptr %6, align 8, !tbaa !8
  %8 = getelementptr inbounds nuw %class.stack, ptr %5, i32 0, i32 3
  %9 = call noundef ptr @_Z21allocate_default_pagePcRS_(ptr noundef %7, ptr noundef nonnull align 8 dereferenceable(8) %8)
  %10 = getelementptr inbounds nuw %class.stack, ptr %5, i32 0, i32 0
  store ptr %9, ptr %10, align 8, !tbaa !8
  %11 = getelementptr inbounds nuw %class.stack, ptr %5, i32 0, i32 0
  %12 = load ptr, ptr %11, align 8, !tbaa !8
  %13 = getelementptr inbounds nuw %class.stack, ptr %5, i32 0, i32 1
  store ptr %12, ptr %13, align 8, !tbaa !11
  %14 = getelementptr inbounds nuw %class.stack, ptr %5, i32 0, i32 0
  %15 = load ptr, ptr %14, align 8, !tbaa !8
  %16 = call noundef ptr @_Z19end_of_default_pagePc(ptr noundef %15)
  %17 = getelementptr inbounds nuw %class.stack, ptr %5, i32 0, i32 2
  store ptr %16, ptr %17, align 8, !tbaa !12
  %18 = load i64, ptr %4, align 8, !tbaa !14
  call void @_ZN5stack10store_markEm(ptr noundef nonnull align 8 dereferenceable(32) %5, i64 noundef %18)
  ret void
}

; Function Attrs: mustprogress uwtable
define hidden void @_ZN5stackC2Ev(ptr noundef nonnull align 8 dereferenceable(32) %0) unnamed_addr #4 align 2 {
  %2 = alloca ptr, align 8
  store ptr %0, ptr %2, align 8, !tbaa !3
  %3 = load ptr, ptr %2, align 8
  %4 = getelementptr inbounds nuw %class.stack, ptr %3, i32 0, i32 0
  store ptr null, ptr %4, align 8, !tbaa !8
  %5 = getelementptr inbounds nuw %class.stack, ptr %3, i32 0, i32 1
  store ptr null, ptr %5, align 8, !tbaa !11
  %6 = getelementptr inbounds nuw %class.stack, ptr %3, i32 0, i32 2
  store ptr null, ptr %6, align 8, !tbaa !12
  %7 = getelementptr inbounds nuw %class.stack, ptr %3, i32 0, i32 3
  store ptr null, ptr %7, align 8, !tbaa !13
  call void @_ZN5stack13allocate_pageEm(ptr noundef nonnull align 8 dereferenceable(32) %3, i64 noundef 0)
  ret void
}