; Function Attrs: mustprogress uwtable
define hidden void @_ZN5stackC2Ev(ptr noundef nonnull align 8 dereferenceable(32) initializes((0, 32)) %0) unnamed_addr #3 align 2 {
  %2 = getelementptr inbounds nuw i8, ptr %0, i64 8
  %3 = getelementptr inbounds nuw i8, ptr %0, i64 16
  %4 = getelementptr inbounds nuw i8, ptr %0, i64 24
  tail call void @llvm.memset.p0.i64(ptr noundef nonnull align 8 dereferenceable(32) %0, i8 0, i64 32, i1 false)
  %5 = tail call noundef ptr @_Z21allocate_default_pagePcRS_(ptr noundef null, ptr noundef nonnull align 8 dereferenceable(8) %4)
  store ptr %5, ptr %0, align 8, !tbaa !3
  %6 = getelementptr inbounds nuw i8, ptr %5, i64 8184
  store ptr %6, ptr %3, align 8, !tbaa !9
  store i64 0, ptr %5, align 8, !tbaa !10
  %7 = getelementptr inbounds nuw i8, ptr %5, i64 8
  store ptr %7, ptr %2, align 8, !tbaa !12
  ret void
}